; ModuleID = 'source-C-CXX/0/1341.cpp'
source_filename = "source-C-CXX/0/1341.cpp"
target datalayout = "e-m:e-p270:32:32-p271:32:32-p272:64:64-i64:64-f80:128-n8:16:32:64-S128"
target triple = "x86_64-pc-linux-gnu"

%"class.std::ios_base::Init" = type { i8 }
%"class.std::basic_istream" = type { i32 (...)**, i64, %"class.std::basic_ios" }
%"class.std::basic_ios" = type { %"class.std::ios_base", %"class.std::basic_ostream"*, i8, i8, %"class.std::basic_streambuf"*, %"class.std::ctype"*, %"class.std::num_put"*, %"class.std::num_get"* }
%"class.std::ios_base" = type { i32 (...)**, i64, i64, i32, i32, i32, %"struct.std::ios_base::_Callback_list"*, %"struct.std::ios_base::_Words", [8 x %"struct.std::ios_base::_Words"], i32, %"struct.std::ios_base::_Words"*, %"class.std::locale" }
%"struct.std::ios_base::_Callback_list" = type { %"struct.std::ios_base::_Callback_list"*, void (i32, %"class.std::ios_base"*, i32)*, i32, i32 }
%"struct.std::ios_base::_Words" = type { i8*, i64 }
%"class.std::locale" = type { %"class.std::locale::_Impl"* }
%"class.std::locale::_Impl" = type { i32, %"class.std::locale::facet"**, i64, %"class.std::locale::facet"**, i8** }
%"class.std::locale::facet" = type <{ i32 (...)**, i32, [4 x i8] }>
%"class.std::basic_ostream" = type { i32 (...)**, %"class.std::basic_ios" }
%"class.std::basic_streambuf" = type { i32 (...)**, i8*, i8*, i8*, i8*, i8*, i8*, %"class.std::locale" }
%"class.std::ctype" = type <{ %"class.std::locale::facet.base", [4 x i8], %struct.__locale_struct*, i8, [7 x i8], i32*, i32*, i16*, i8, [256 x i8], [256 x i8], i8, [6 x i8] }>
%"class.std::locale::facet.base" = type <{ i32 (...)**, i32 }>
%struct.__locale_struct = type { [13 x %struct.__locale_data*], i16*, i32*, i32*, [13 x i8*] }
%struct.__locale_data = type opaque
%"class.std::num_put" = type { %"class.std::locale::facet.base", [4 x i8] }
%"class.std::num_get" = type { %"class.std::locale::facet.base", [4 x i8] }

@_ZStL8__ioinit = internal global %"class.std::ios_base::Init" zeroinitializer, align 1
@__dso_handle = external hidden global i8
@i = dso_local local_unnamed_addr global i32 0, align 4
@_ZSt3cin = external global %"class.std::basic_istream", align 8
@_ZSt4cout = external global %"class.std::basic_ostream", align 8
@llvm.global_ctors = appending global [1 x { i32, void ()*, i8* }] [{ i32, void ()*, i8* } { i32 65535, void ()* @_GLOBAL__sub_I_1341.cpp, i8* null }]

declare void @_ZNSt8ios_base4InitC1Ev(%"class.std::ios_base::Init"* nonnull align 1 dereferenceable(1)) unnamed_addr #0

; Function Attrs: nounwind
declare void @_ZNSt8ios_base4InitD1Ev(%"class.std::ios_base::Init"* nonnull align 1 dereferenceable(1)) unnamed_addr #1

; Function Attrs: nofree nounwind
declare i32 @__cxa_atexit(void (i8*)*, i8*, i8*) local_unnamed_addr #2

; Function Attrs: mustprogress nofree nounwind sspstrong uwtable
define dso_local i32 @_Z6fenjieii(i32 %0, i32 %1) local_unnamed_addr #3 {
  %3 = add i32 %0, -1
  %4 = icmp ult i32 %3, 2
  br i1 %4, label %25, label %5

5:                                                ; preds = %2
  %6 = sitofp i32 %0 to double
  %7 = sitofp i32 %1 to double
  %8 = tail call double @sqrt(double %6) #9
  %9 = fcmp ult double %8, %7
  br i1 %9, label %25, label %10

10:                                               ; preds = %5, %19
  %11 = phi i32 [ %20, %19 ], [ 1, %5 ]
  %12 = phi i32 [ %21, %19 ], [ %1, %5 ]
  %13 = srem i32 %0, %12
  %14 = sdiv i32 %0, %12
  %15 = icmp eq i32 %13, 0
  br i1 %15, label %16, label %19

16:                                               ; preds = %10
  %17 = tail call i32 @_Z6fenjieii(i32 %14, i32 %12)
  %18 = add nsw i32 %17, %11
  br label %19

19:                                               ; preds = %10, %16
  %20 = phi i32 [ %18, %16 ], [ %11, %10 ]
  %21 = add nsw i32 %12, 1
  %22 = sitofp i32 %21 to double
  %23 = tail call double @sqrt(double %6) #9
  %24 = fcmp ult double %23, %22
  br i1 %24, label %25, label %10, !llvm.loop !5

25:                                               ; preds = %19, %5, %2
  %26 = phi i32 [ 1, %2 ], [ 1, %5 ], [ %20, %19 ]
  ret i32 %26
}

; Function Attrs: argmemonly mustprogress nofree nosync nounwind willreturn
declare void @llvm.lifetime.start.p0i8(i64 immarg, i8* nocapture) #4

; Function Attrs: argmemonly mustprogress nofree nosync nounwind willreturn
declare void @llvm.lifetime.end.p0i8(i64 immarg, i8* nocapture) #4

; Function Attrs: mustprogress norecurse sspstrong uwtable
define dso_local i32 @main() local_unnamed_addr #5 {
  %1 = alloca i32, align 4
  %2 = alloca [100 x i32], align 16
  %3 = alloca i32, align 4
  %4 = bitcast i32* %1 to i8*
  call void @llvm.lifetime.start.p0i8(i64 4, i8* nonnull %4) #9
  %5 = bitcast [100 x i32]* %2 to i8*
  call void @llvm.lifetime.start.p0i8(i64 400, i8* nonnull %5) #9
  %6 = bitcast i32* %3 to i8*
  call void @llvm.lifetime.start.p0i8(i64 4, i8* nonnull %6) #9
  %7 = call nonnull align 8 dereferenceable(16) %"class.std::basic_istream"* @_ZNSirsERi(%"class.std::basic_istream"* nonnull align 8 dereferenceable(16) @_ZSt3cin, i32* nonnull align 4 dereferenceable(4) %1)
  store i32 0, i32* @i, align 4, !tbaa !7
  %8 = load i32, i32* %1, align 4, !tbaa !7
  %9 = icmp sgt i32 %8, 0
  br i1 %9, label %13, label %10

10:                                               ; preds = %0
  store i32 0, i32* @i, align 4, !tbaa !7
  br label %62

11:                                               ; preds = %13
  store i32 0, i32* @i, align 4, !tbaa !7
  %12 = icmp sgt i32 %21, 0
  br i1 %12, label %23, label %62

13:                                               ; preds = %0, %13
  %14 = call nonnull align 8 dereferenceable(16) %"class.std::basic_istream"* @_ZNSirsERi(%"class.std::basic_istream"* nonnull align 8 dereferenceable(16) @_ZSt3cin, i32* nonnull align 4 dereferenceable(4) %3)
  %15 = load i32, i32* %3, align 4, !tbaa !7
  %16 = call i32 @_Z6fenjieii(i32 %15, i32 2)
  %17 = load i32, i32* @i, align 4, !tbaa !7
  %18 = sext i32 %17 to i64
  %19 = getelementptr inbounds [100 x i32], [100 x i32]* %2, i64 0, i64 %18
  store i32 %16, i32* %19, align 4, !tbaa !7
  %20 = add nsw i32 %17, 1
  store i32 %20, i32* @i, align 4, !tbaa !7
  %21 = load i32, i32* %1, align 4, !tbaa !7
  %22 = icmp slt i32 %20, %21
  br i1 %22, label %13, label %11, !llvm.loop !11

23:                                               ; preds = %11, %54
  %24 = phi i32 [ %59, %54 ], [ 0, %11 ]
  %25 = sext i32 %24 to i64
  %26 = getelementptr inbounds [100 x i32], [100 x i32]* %2, i64 0, i64 %25
  %27 = load i32, i32* %26, align 4, !tbaa !7
  %28 = call nonnull align 8 dereferenceable(8) %"class.std::basic_ostream"* @_ZNSolsEi(%"class.std::basic_ostream"* nonnull align 8 dereferenceable(8) @_ZSt4cout, i32 %27)
  %29 = bitcast %"class.std::basic_ostream"* %28 to i8**
  %30 = load i8*, i8** %29, align 8, !tbaa !12
  %31 = getelementptr i8, i8* %30, i64 -24
  %32 = bitcast i8* %31 to i64*
  %33 = load i64, i64* %32, align 8
  %34 = bitcast %"class.std::basic_ostream"* %28 to i8*
  %35 = add nsw i64 %33, 240
  %36 = getelementptr inbounds i8, i8* %34, i64 %35
  %37 = bitcast i8* %36 to %"class.std::ctype"**
  %38 = load %"class.std::ctype"*, %"class.std::ctype"** %37, align 8, !tbaa !14
  %39 = icmp eq %"class.std::ctype"* %38, null
  br i1 %39, label %40, label %41

40:                                               ; preds = %23
  call void @_ZSt16__throw_bad_castv() #10
  unreachable

41:                                               ; preds = %23
  %42 = getelementptr inbounds %"class.std::ctype", %"class.std::ctype"* %38, i64 0, i32 8
  %43 = load i8, i8* %42, align 8, !tbaa !18
  %44 = icmp eq i8 %43, 0
  br i1 %44, label %48, label %45

45:                                               ; preds = %41
  %46 = getelementptr inbounds %"class.std::ctype", %"class.std::ctype"* %38, i64 0, i32 9, i64 10
  %47 = load i8, i8* %46, align 1, !tbaa !20
  br label %54

48:                                               ; preds = %41
  call void @_ZNKSt5ctypeIcE13_M_widen_initEv(%"class.std::ctype"* nonnull align 8 dereferenceable(570) %38)
  %49 = bitcast %"class.std::ctype"* %38 to i8 (%"class.std::ctype"*, i8)***
  %50 = load i8 (%"class.std::ctype"*, i8)**, i8 (%"class.std::ctype"*, i8)*** %49, align 8, !tbaa !12
  %51 = getelementptr inbounds i8 (%"class.std::ctype"*, i8)*, i8 (%"class.std::ctype"*, i8)** %50, i64 6
  %52 = load i8 (%"class.std::ctype"*, i8)*, i8 (%"class.std::ctype"*, i8)** %51, align 8
  %53 = call signext i8 %52(%"class.std::ctype"* nonnull align 8 dereferenceable(570) %38, i8 signext 10)
  br label %54

54:                                               ; preds = %45, %48
  %55 = phi i8 [ %47, %45 ], [ %53, %48 ]
  %56 = call nonnull align 8 dereferenceable(8) %"class.std::basic_ostream"* @_ZNSo3putEc(%"class.std::basic_ostream"* nonnull align 8 dereferenceable(8) %28, i8 signext %55)
  %57 = call nonnull align 8 dereferenceable(8) %"class.std::basic_ostream"* @_ZNSo5flushEv(%"class.std::basic_ostream"* nonnull align 8 dereferenceable(8) %56)
  %58 = load i32, i32* @i, align 4, !tbaa !7
  %59 = add nsw i32 %58, 1
  store i32 %59, i32* @i, align 4, !tbaa !7
  %60 = load i32, i32* %1, align 4, !tbaa !7
  %61 = icmp slt i32 %59, %60
  br i1 %61, label %23, label %62, !llvm.loop !21

62:                                               ; preds = %54, %10, %11
  call void @llvm.lifetime.end.p0i8(i64 4, i8* nonnull %6) #9
  call void @llvm.lifetime.end.p0i8(i64 400, i8* nonnull %5) #9
  call void @llvm.lifetime.end.p0i8(i64 4, i8* nonnull %4) #9
  ret i32 0
}

declare nonnull align 8 dereferenceable(16) %"class.std::basic_istream"* @_ZNSirsERi(%"class.std::basic_istream"* nonnull align 8 dereferenceable(16), i32* nonnull align 4 dereferenceable(4)) local_unnamed_addr #0

declare nonnull align 8 dereferenceable(8) %"class.std::basic_ostream"* @_ZNSolsEi(%"class.std::basic_ostream"* nonnull align 8 dereferenceable(8), i32) local_unnamed_addr #0

; Function Attrs: mustprogress nofree nounwind willreturn
declare double @sqrt(double) local_unnamed_addr #6

declare nonnull align 8 dereferenceable(8) %"class.std::basic_ostream"* @_ZNSo3putEc(%"class.std::basic_ostream"* nonnull align 8 dereferenceable(8), i8 signext) local_unnamed_addr #0

declare nonnull align 8 dereferenceable(8) %"class.std::basic_ostream"* @_ZNSo5flushEv(%"class.std::basic_ostream"* nonnull align 8 dereferenceable(8)) local_unnamed_addr #0

; Function Attrs: noreturn
declare void @_ZSt16__throw_bad_castv() local_unnamed_addr #7

declare void @_ZNKSt5ctypeIcE13_M_widen_initEv(%"class.std::ctype"* nonnull align 8 dereferenceable(570)) local_unnamed_addr #0

; Function Attrs: sspstrong uwtable
define internal void @_GLOBAL__sub_I_1341.cpp() #8 section ".text.startup" {
  tail call void @_ZNSt8ios_base4InitC1Ev(%"class.std::ios_base::Init"* nonnull align 1 dereferenceable(1) @_ZStL8__ioinit)
  %1 = tail call i32 @__cxa_atexit(void (i8*)* bitcast (void (%"class.std::ios_base::Init"*)* @_ZNSt8ios_base4InitD1Ev to void (i8*)*), i8* getelementptr inbounds (%"class.std::ios_base::Init", %"class.std::ios_base::Init"* @_ZStL8__ioinit, i64 0, i32 0), i8* nonnull @__dso_handle) #9
  ret void
}


!llvm.module.flags = !{!0, !1, !2, !3}
!llvm.ident = !{!4}

!0 = !{i32 1, !"wchar_size", i32 4}
!1 = !{i32 7, !"PIC Level", i32 2}
!2 = !{i32 7, !"PIE Level", i32 2}
!3 = !{i32 7, !"uwtable", i32 1}
!4 = !{!"clang version 13.0.0"}
!5 = distinct !{!5, !6}
!6 = !{!"llvm.loop.mustprogress"}
!7 = !{!8, !8, i64 0}
!8 = !{!"int", !9, i64 0}
!9 = !{!"omnipotent char", !10, i64 0}
!10 = !{!"Simple C++ TBAA"}
!11 = distinct !{!11, !6}
!12 = !{!13, !13, i64 0}
!13 = !{!"vtable pointer", !10, i64 0}
!14 = !{!15, !16, i64 240}
!15 = !{!"_ZTSSt9basic_iosIcSt11char_traitsIcEE", !16, i64 216, !9, i64 224, !17, i64 225, !16, i64 232, !16, i64 240, !16, i64 248, !16, i64 256}
!16 = !{!"any pointer", !9, i64 0}
!17 = !{!"bool", !9, i64 0}
!18 = !{!19, !9, i64 56}
!19 = !{!"_ZTSSt5ctypeIcE", !16, i64 16, !17, i64 24, !16, i64 32, !16, i64 40, !16, i64 48, !9, i64 56, !9, i64 57, !9, i64 313, !9, i64 569}
!20 = !{!9, !9, i64 0}
!21 = distinct !{!21, !6}
